; Function Attrs: mustprogress uwtable
define noundef nonnull align 8 dereferenceable(8) ptr @_ZNK4LIEF2PE19LoadConfigurationV75printERSo(ptr noundef nonnull align 8 dereferenceable(280) %0, ptr noundef nonnull returned align 8 dereferenceable(8) %1) unnamed_addr #3 align 2 personality ptr @__gxx_personality_v0 {
  %3 = alloca %"class.fmt::v9::format_arg_store.114", align 16
  %4 = alloca %"class.fmt::v9::format_arg_store", align 16
  %5 = alloca %"class.std::__cxx11::basic_string", align 8
  %6 = alloca %"class.std::__cxx11::basic_string", align 8
  %7 = tail call noundef nonnull align 8 dereferenceable(8) ptr @_ZNK4LIEF2PE19LoadConfigurationV65printERSo(ptr noundef nonnull align 8 dereferenceable(268) %0, ptr noundef nonnull align 8 dereferenceable(8) %1)
  %8 = tail call noundef nonnull align 8 dereferenceable(8) ptr @_ZStlsISt11char_traitsIcEERSt13basic_ostreamIcT_ES5_PKc(ptr noundef nonnull align 8 dereferenceable(8) %1, ptr noundef nonnull @.str)
  %9 = getelementptr inbounds i8, ptr %0, i64 268
  %10 = load i32, ptr %9, align 4
  %.sroa.0.0.insert.ext.i = zext i32 %10 to i64
  store i64 %.sroa.0.0.insert.ext.i, ptr %4, align 16, !noalias !4
  call void @_ZN3fmt2v97vformatB5cxx11ENS0_17basic_string_viewIcEENS0_17basic_format_argsINS0_20basic_format_contextINS0_8appenderEcEEEE(ptr dead_on_unwind nonnull writable sret(%"class.std::__cxx11::basic_string") align 8 %5, ptr nonnull @.str.1, i64 37, i64 2, ptr nonnull %4)
  %11 = invoke noundef nonnull align 8 dereferenceable(8) ptr @_ZStlsIcSt11char_traitsIcESaIcEERSt13basic_ostreamIT_T0_ES7_RKNSt7__cxx1112basic_stringIS4_S5_T1_EE(ptr noundef nonnull align 8 dereferenceable(8) %8, ptr noundef nonnull align 8 dereferenceable(32) %5)
          to label %12 unwind label %18

12:                                               ; preds = %2
  %13 = getelementptr inbounds i8, ptr %0, i64 272
  %14 = load i64, ptr %13, align 8
  store i64 %14, ptr %3, align 16, !noalias !7
  invoke void @_ZN3fmt2v97vformatB5cxx11ENS0_17basic_string_viewIcEENS0_17basic_format_argsINS0_20basic_format_contextINS0_8appenderEcEEEE(ptr dead_on_unwind nonnull writable sret(%"class.std::__cxx11::basic_string") align 8 %6, ptr nonnull @.str.2, i64 37, i64 4, ptr nonnull %3)
          to label %15 unwind label %18

15:                                               ; preds = %12
  %16 = invoke noundef nonnull align 8 dereferenceable(8) ptr @_ZStlsIcSt11char_traitsIcESaIcEERSt13basic_ostreamIT_T0_ES7_RKNSt7__cxx1112basic_stringIS4_S5_T1_EE(ptr noundef nonnull align 8 dereferenceable(8) %11, ptr noundef nonnull align 8 dereferenceable(32) %6)
          to label %17 unwind label %20

17:                                               ; preds = %15
  call void @_ZNSt7__cxx1112basic_stringIcSt11char_traitsIcESaIcEED1Ev(ptr noundef nonnull align 8 dereferenceable(32) %6) #19
  call void @_ZNSt7__cxx1112basic_stringIcSt11char_traitsIcESaIcEED1Ev(ptr noundef nonnull align 8 dereferenceable(32) %5) #19
  ret ptr %1

18:                                               ; preds = %12, %2
  %19 = landingpad { ptr, i32 }
          cleanup
  br label %22

20:                                               ; preds = %15
  %21 = landingpad { ptr, i32 }
          cleanup
  call void @_ZNSt7__cxx1112basic_stringIcSt11char_traitsIcESaIcEED1Ev(ptr noundef nonnull align 8 dereferenceable(32) %6) #19
  br label %22

22:                                               ; preds = %20, %18
  %.pn = phi { ptr, i32 } [ %21, %20 ], [ %19, %18 ]
  call void @_ZNSt7__cxx1112basic_stringIcSt11char_traitsIcESaIcEED1Ev(ptr noundef nonnull align 8 dereferenceable(32) %5) #19
  resume { ptr, i32 } %.pn
}